; Function Attrs: nofree norecurse nosync nounwind memory(readwrite, inaccessiblemem: none) uwtable
define internal void @HorizontalFilter_C(ptr nocapture noundef readonly %0, i32 noundef %1, i32 noundef %2, i32 noundef %3, ptr nocapture noundef writeonly %4) #4 {
  %6 = load i8, ptr %0, align 1
  store i8 %6, ptr %4, align 1
  %7 = getelementptr inbounds i8, ptr %0, i64 1
  %8 = getelementptr inbounds i8, ptr %4, i64 1
  %9 = icmp sgt i32 %1, 1
  br i1 %9, label %.lr.ph.preheader.i.i, label %PredictLine_C.exit.thread.i

.lr.ph.preheader.i.i:                             ; preds = %5
  %10 = add nsw i32 %1, -1
  %wide.trip.count.i.i = zext nneg i32 %10 to i64
  br label %.lr.ph.i.i

.lr.ph.i.i:                                       ; preds = %.lr.ph.i.i, %.lr.ph.preheader.i.i
  %indvars.iv.i.i = phi i64 [ 0, %.lr.ph.preheader.i.i ], [ %indvars.iv.next.i.i, %.lr.ph.i.i ]
  %11 = getelementptr inbounds i8, ptr %7, i64 %indvars.iv.i.i
  %12 = load i8, ptr %11, align 1
  %13 = getelementptr inbounds i8, ptr %0, i64 %indvars.iv.i.i
  %14 = load i8, ptr %13, align 1
  %15 = sub i8 %12, %14
  %16 = getelementptr inbounds i8, ptr %8, i64 %indvars.iv.i.i
  store i8 %15, ptr %16, align 1
  %indvars.iv.next.i.i = add nuw nsw i64 %indvars.iv.i.i, 1
  %exitcond.not.i.i = icmp eq i64 %indvars.iv.next.i.i, %wide.trip.count.i.i
  br i1 %exitcond.not.i.i, label %PredictLine_C.exit.i, label %.lr.ph.i.i, !llvm.loop !8

PredictLine_C.exit.i:                             ; preds = %.lr.ph.i.i
  %17 = sext i32 %3 to i64
  %18 = icmp sgt i32 %2, 1
  br i1 %18, label %.lr.ph.split.us.i, label %DoHorizontalFilter_C.exit

PredictLine_C.exit.thread.i:                      ; preds = %5
  %19 = icmp sgt i32 %2, 1
  br i1 %19, label %.lr.ph.split.preheader.i, label %DoHorizontalFilter_C.exit

.lr.ph.split.preheader.i:                         ; preds = %PredictLine_C.exit.thread.i
  %20 = sext i32 %3 to i64
  br label %.lr.ph.split.i

.lr.ph.split.us.i:                                ; preds = %PredictLine_C.exit.i, %PredictLine_C.exit62.loopexit.us.i
  %.14867.us.i.pn = phi ptr [ %.14867.us.i, %PredictLine_C.exit62.loopexit.us.i ], [ %4, %PredictLine_C.exit.i ]
  %.166.us.i.pn = phi ptr [ %.166.us.i, %PredictLine_C.exit62.loopexit.us.i ], [ %0, %PredictLine_C.exit.i ]
  %.14465.us.i = phi i32 [ %32, %PredictLine_C.exit62.loopexit.us.i ], [ 1, %PredictLine_C.exit.i ]
  %.166.us.i = getelementptr inbounds i8, ptr %.166.us.i.pn, i64 %17
  %.14867.us.i = getelementptr inbounds i8, ptr %.14867.us.i.pn, i64 %17
  %21 = load i8, ptr %.166.us.i, align 1
  %22 = load i8, ptr %.166.us.i.pn, align 1
  %23 = sub i8 %21, %22
  store i8 %23, ptr %.14867.us.i, align 1
  %24 = getelementptr inbounds i8, ptr %.166.us.i, i64 1
  %25 = getelementptr inbounds i8, ptr %.14867.us.i, i64 1
  br label %.lr.ph.i58.us.i

.lr.ph.i58.us.i:                                  ; preds = %.lr.ph.i58.us.i, %.lr.ph.split.us.i
  %indvars.iv.i59.us.i = phi i64 [ 0, %.lr.ph.split.us.i ], [ %indvars.iv.next.i60.us.i, %.lr.ph.i58.us.i ]
  %26 = getelementptr inbounds i8, ptr %24, i64 %indvars.iv.i59.us.i
  %27 = load i8, ptr %26, align 1
  %28 = getelementptr inbounds i8, ptr %.166.us.i, i64 %indvars.iv.i59.us.i
  %29 = load i8, ptr %28, align 1
  %30 = sub i8 %27, %29
  %31 = getelementptr inbounds i8, ptr %25, i64 %indvars.iv.i59.us.i
  store i8 %30, ptr %31, align 1
  %indvars.iv.next.i60.us.i = add nuw nsw i64 %indvars.iv.i59.us.i, 1
  %exitcond.not.i61.us.i = icmp eq i64 %indvars.iv.next.i60.us.i, %wide.trip.count.i.i
  br i1 %exitcond.not.i61.us.i, label %PredictLine_C.exit62.loopexit.us.i, label %.lr.ph.i58.us.i, !llvm.loop !8

PredictLine_C.exit62.loopexit.us.i:               ; preds = %.lr.ph.i58.us.i
  %32 = add nuw nsw i32 %.14465.us.i, 1
  %exitcond69.not.i = icmp eq i32 %32, %2
  br i1 %exitcond69.not.i, label %DoHorizontalFilter_C.exit, label %.lr.ph.split.us.i, !llvm.loop !9

.lr.ph.split.i:                                   ; preds = %.lr.ph.split.i, %.lr.ph.split.preheader.i
  %.14867.i.pn = phi ptr [ %.14867.i, %.lr.ph.split.i ], [ %4, %.lr.ph.split.preheader.i ]
  %.166.i.pn = phi ptr [ %.166.i, %.lr.ph.split.i ], [ %0, %.lr.ph.split.preheader.i ]
  %.14465.i = phi i32 [ %36, %.lr.ph.split.i ], [ 1, %.lr.ph.split.preheader.i ]
  %.166.i = getelementptr inbounds i8, ptr %.166.i.pn, i64 %20
  %.14867.i = getelementptr inbounds i8, ptr %.14867.i.pn, i64 %20
  %33 = load i8, ptr %.166.i, align 1
  %34 = load i8, ptr %.166.i.pn, align 1
  %35 = sub i8 %33, %34
  store i8 %35, ptr %.14867.i, align 1
  %36 = add nuw nsw i32 %.14465.i, 1
  %exitcond.not.i = icmp eq i32 %36, %2
  br i1 %exitcond.not.i, label %DoHorizontalFilter_C.exit, label %.lr.ph.split.i, !llvm.loop !9

DoHorizontalFilter_C.exit:                        ; preds = %.lr.ph.split.i, %PredictLine_C.exit62.loopexit.us.i, %PredictLine_C.exit.i, %PredictLine_C.exit.thread.i
  ret void
}